; Function Attrs: mustprogress nounwind uwtable
define dso_local noalias noundef ptr @_ZN4llvm17LibCallSimplifier13optimizeStrToEPNS_8CallInstERNS_13IRBuilderBaseE(ptr nocapture noundef nonnull readnone align 8 dereferenceable(104) %0, ptr noundef %1, ptr nocapture noundef nonnull readnone align 8 dereferenceable(128) %2) local_unnamed_addr #0 align 2 {
  %4 = getelementptr inbounds nuw i8, ptr %1, i64 4
  %5 = load i32, ptr %4, align 4
  %6 = and i32 %5, 134217727
  %7 = zext nneg i32 %6 to i64
  %8 = sub nsw i64 0, %7
  %9 = getelementptr inbounds %"class.llvm::Use", ptr %1, i64 %8
  %10 = getelementptr inbounds i8, ptr %9, i64 32
  %11 = load ptr, ptr %10, align 8
  %12 = load i8, ptr %11, align 8
  %13 = icmp eq i8 %12, 20
  br i1 %13, label %14, label %18

14:                                               ; preds = %3
  %15 = getelementptr inbounds nuw i8, ptr %1, i64 72
  %16 = tail call noundef nonnull align 8 dereferenceable(8) ptr @_ZNK4llvm5Value10getContextEv(ptr noundef nonnull align 8 dereferenceable(24) %1) #24
  %17 = tail call ptr @_ZNK4llvm13AttributeList19addAttributeAtIndexERNS_11LLVMContextEjNS_9Attribute8AttrKindE(ptr noundef nonnull align 8 dereferenceable(8) %15, ptr noundef nonnull align 8 dereferenceable(8) %16, i32 noundef 1, i32 noundef 24) #24
  store ptr %17, ptr %15, align 8
  br label %18

18:                                               ; preds = %14, %3
  ret ptr null
}